target datalayout = "e-m:e-p270:32:32-p271:32:32-p272:64:64-i64:64-i128:128-f80:128-n8:16:32:64-S128"
target triple = "x86_64-pc-linux-gnu"

%struct.redisServer = type { i32, i64, ptr, ptr, ptr, i32, i32, i32, i32, i32, ptr, ptr, ptr, ptr, ptr, i32, i32, i32, i32, i64, i32, i32, i32, i32, ptr, i32, i32, [41 x i8], i32, i64, i32, i32, i32, ptr, ptr, i32, i32, i64, ptr, ptr, ptr, ptr, [2 x i32], i32, i32, i32, i32, i32, i32, [16 x ptr], i32, ptr, ptr, i32, [8 x %struct.connListener], i32, %struct.connListener, ptr, ptr, ptr, ptr, ptr, ptr, ptr, ptr, ptr, ptr, i32, ptr, i32, ptr, [3 x %struct.pause_event], [256 x i8], ptr, i64, i32, i32, [128 x i32], i32, i32, i64, i32, i32, i32, i32, i32, i64, i64, i64, i64, i64, i64, i64, i64, i64, i64, double, i64, i64, i64, i64, i64, i64, i64, i64, i64, i64, i64, i64, i64, i64, i64, i64, i64, i64, i64, i64, i64, double, i64, i64, i64, i64, i64, ptr, i64, i64, i64, %struct.malloc_stats, i64, i64, i64, i64, i64, i64, i64, i64, i64, i64, i64, i64, double, [4 x i64], i64, i64, i64, i64, [128 x i64], [128 x i64], i64, i64, [7 x %struct.anon], i64, i64, i64, i64, i64, i64, [4 x %struct.durationStats], i32, i32, i32, i32, i32, i32, i32, i32, i32, i32, i32, i32, i64, i32, i32, i32, i32, i64, i64, i32, i32, i32, i32, i32, ptr, [3 x %struct.clientBufferLimitsConfig], i32, i32, i32, ptr, i32, i32, i32, i32, i32, i32, ptr, ptr, i32, i32, i64, i64, i64, i64, i64, i32, i32, ptr, i32, i32, i64, i64, i64, i64, i64, i32, i32, i64, i32, i32, i32, i32, i32, i32, i32, i32, ptr, i32, i64, i64, i64, i64, i32, ptr, i32, ptr, i32, i32, i32, i64, i64, i64, i64, i32, i32, i32, i32, i32, i32, ptr, i32, i32, ptr, i32, i32, i32, [2 x i32], i32, %struct.redisOpArray, i32, ptr, i32, ptr, i32, i32, i32, i32, i32, i32, i32, [41 x i8], [41 x i8], i64, i64, i64, i64, i32, i32, ptr, i64, i64, %struct.replDataBuf, i64, i64, i32, i32, i32, i32, i32, i32, i32, i32, i32, i64, ptr, i64, ptr, ptr, ptr, i32, i32, ptr, ptr, i32, i32, i32, i64, i64, i64, i64, ptr, ptr, i32, ptr, i64, i32, i32, i32, i64, i32, i32, i32, i32, ptr, i32, i32, [41 x i8], i64, i32, ptr, i32, i32, i64, i64, i32, i32, i32, i32, i32, i64, [3 x i32], i32, i32, i32, [10 x i32], ptr, ptr, i32, i64, ptr, ptr, i32, i32, i32, i32, i64, i64, i64, i64, i64, i64, i64, i64, i64, i64, i32, i32, i64, i64, i32, i64, i64, i64, i64, i64, ptr, ptr, i32, ptr, i32, i32, i32, i32, i64, i64, ptr, ptr, i32, i32, i32, i32, i32, ptr, ptr, ptr, i32, i32, i32, i32, i32, i32, i32, i64, i32, i32, i64, i32, i32, i32, i32, i32, i32, i32, i64, ptr, ptr, i64, ptr, i32, %struct.aclInfo, i32, i64, i32, i32, i32, %struct.redisTLSContextConfig, ptr, ptr, ptr, ptr, ptr, i64, i32, ptr, i32, i32, i32, i64, i32, ptr }
%struct.connListener = type { [16 x i32], i32, ptr, i32, i32, ptr, ptr }
%struct.pause_event = type { i32, i64 }
%struct.malloc_stats = type { i64, i64, i64, i64, i64, i64, i64, i64, i64, i64, i64 }
%struct.anon = type { i64, i64, [16 x i64], i32 }
%struct.durationStats = type { i64, i64, i64 }
%struct.clientBufferLimitsConfig = type { i64, i64, i64 }
%struct.redisOpArray = type { ptr, i32, i32 }
%struct.replDataBuf = type { ptr, i64, i64, i64, i64 }
%struct.aclInfo = type { i64, i64, i64, i64 }
%struct.redisTLSContextConfig = type { ptr, ptr, ptr, ptr, ptr, ptr, ptr, ptr, ptr, ptr, ptr, ptr, i32, i32, i32, i32 }
%struct.client = type { i64, i64, ptr, i8, i8, i8, i8, i32, ptr, ptr, ptr, ptr, ptr, i64, i64, i32, ptr, i32, i32, ptr, i64, ptr, ptr, ptr, ptr, ptr, i32, i32, i64, ptr, i64, ptr, i64, i64, i64, i32, ptr, i64, i64, i32, i32, i32, i32, i64, i64, ptr, i64, i64, i64, i64, i64, i64, i64, i64, [41 x i8], i32, ptr, i32, i32, i64, %struct.multiState, %struct.blockingState, i64, ptr, ptr, ptr, ptr, ptr, ptr, ptr, ptr, ptr, ptr, ptr, ptr, ptr, ptr, i64, ptr, i64, i32, ptr, ptr, ptr, i64, %struct.listNode, i64, i64, i32, i64, ptr }
%struct.multiState = type { ptr, i32, i32, i32, i64, i32 }
%struct.blockingState = type { i32, i64, i32, ptr, i32, i32, i64, ptr, ptr, i64 }
%struct.listNode = type { ptr, ptr, ptr }
%struct.connection = type { ptr, i32, i32, i32, i16, i16, i16, ptr, ptr, ptr, ptr, ptr }

@server = external global %struct.redisServer, align 8
@.str.1 = private unnamed_addr constant [10 x i8] c"cluster.c\00", align 1
@.str.53 = private unnamed_addr constant [3 x i8] c"ip\00", align 1
@.str.55 = private unnamed_addr constant [9 x i8] c"hostname\00", align 1
@.str.116 = private unnamed_addr constant [2 x i8] c"?\00", align 1
@.str.117 = private unnamed_addr constant [37 x i8] c"Unrecognized preferred endpoint type\00", align 1
@.str.118 = private unnamed_addr constant [12 x i8] c"length == 0\00", align 1

; Function Attrs: inlinehint nounwind uwtable
define internal i32 @connIsTLS(ptr noundef %0) #5 {
  %2 = alloca ptr, align 8
  store ptr %0, ptr %2, align 8, !tbaa !90
  %3 = load ptr, ptr %2, align 8, !tbaa !90
  %4 = icmp ne ptr %3, null
  br i1 %4, label %5, label %11

5:                                                ; preds = %1
  %6 = load ptr, ptr %2, align 8, !tbaa !90
  %7 = getelementptr inbounds nuw %struct.connection, ptr %6, i32 0, i32 0
  %8 = load ptr, ptr %7, align 8, !tbaa !92
  %9 = call ptr @connectionTypeTls()
  %10 = icmp eq ptr %8, %9
  br label %11

11:                                               ; preds = %5, %1
  %12 = phi i1 [ false, %1 ], [ %10, %5 ]
  %13 = zext i1 %12 to i32
  ret i32 %13
}

; Function Attrs: nounwind uwtable
define internal i32 @shouldReturnTlsInfo() #0 {
  %1 = alloca i32, align 4
  %2 = load ptr, ptr getelementptr inbounds nuw (%struct.redisServer, ptr @server, i32 0, i32 63), align 8, !tbaa !128
  %3 = icmp ne ptr %2, null
  br i1 %3, label %4, label %14

4:                                                ; preds = %0
  %5 = load ptr, ptr getelementptr inbounds nuw (%struct.redisServer, ptr @server, i32 0, i32 63), align 8, !tbaa !128
  %6 = getelementptr inbounds nuw %struct.client, ptr %5, i32 0, i32 2
  %7 = load ptr, ptr %6, align 8, !tbaa !129
  %8 = icmp ne ptr %7, null
  br i1 %8, label %9, label %14

9:                                                ; preds = %4
  %10 = load ptr, ptr getelementptr inbounds nuw (%struct.redisServer, ptr @server, i32 0, i32 63), align 8, !tbaa !128
  %11 = getelementptr inbounds nuw %struct.client, ptr %10, i32 0, i32 2
  %12 = load ptr, ptr %11, align 8, !tbaa !129
  %13 = call i32 @connIsTLS(ptr noundef %12)
  store i32 %13, ptr %1, align 4
  br label %16

14:                                               ; preds = %4, %0
  %15 = load i32, ptr getelementptr inbounds nuw (%struct.redisServer, ptr @server, i32 0, i32 421), align 8, !tbaa !15
  store i32 %15, ptr %1, align 4
  br label %16

16:                                               ; preds = %14, %9
  %17 = load i32, ptr %1, align 4
  ret i32 %17
}

; Function Attrs: nounwind uwtable
define dso_local void @addNodeToNodeReply(ptr noundef %0, ptr noundef %1) #0 {
  %3 = alloca ptr, align 8
  %4 = alloca ptr, align 8
  %5 = alloca ptr, align 8
  %6 = alloca i32, align 4
  store ptr %0, ptr %3, align 8, !tbaa !53
  store ptr %1, ptr %4, align 8, !tbaa !116
  call void @llvm.lifetime.start.p0(i64 8, ptr %5) #14
  %7 = load ptr, ptr %4, align 8, !tbaa !116
  %8 = call ptr @clusterNodeHostname(ptr noundef %7)
  store ptr %8, ptr %5, align 8, !tbaa !5
  %9 = load ptr, ptr %3, align 8, !tbaa !53
  call void @addReplyArrayLen(ptr noundef %9, i64 noundef 4)
  %10 = load i32, ptr getelementptr inbounds nuw (%struct.redisServer, ptr @server, i32 0, i32 394), align 8, !tbaa !166
  %11 = icmp eq i32 %10, 0
  br i1 %11, label %12, label %16

12:                                               ; preds = %2
  %13 = load ptr, ptr %3, align 8, !tbaa !53
  %14 = load ptr, ptr %4, align 8, !tbaa !116
  %15 = call ptr @clusterNodeIp(ptr noundef %14)
  call void @addReplyBulkCString(ptr noundef %13, ptr noundef %15)
  br label %42

16:                                               ; preds = %2
  %17 = load i32, ptr getelementptr inbounds nuw (%struct.redisServer, ptr @server, i32 0, i32 394), align 8, !tbaa !166
  %18 = icmp eq i32 %17, 1
  br i1 %18, label %19, label %34

19:                                               ; preds = %16
  %20 = load ptr, ptr %5, align 8, !tbaa !5
  %21 = icmp ne ptr %20, null
  br i1 %21, label %22, label %31

22:                                               ; preds = %19
  %23 = load ptr, ptr %5, align 8, !tbaa !5
  %24 = getelementptr inbounds i8, ptr %23, i64 0
  %25 = load i8, ptr %24, align 1, !tbaa !12
  %26 = sext i8 %25 to i32
  %27 = icmp ne i32 %26, 0
  br i1 %27, label %28, label %31

28:                                               ; preds = %22
  %29 = load ptr, ptr %3, align 8, !tbaa !53
  %30 = load ptr, ptr %5, align 8, !tbaa !5
  call void @addReplyBulkCString(ptr noundef %29, ptr noundef %30)
  br label %33

31:                                               ; preds = %22, %19
  %32 = load ptr, ptr %3, align 8, !tbaa !53
  call void @addReplyBulkCString(ptr noundef %32, ptr noundef @.str.116)
  br label %33

33:                                               ; preds = %31, %28
  br label %41

34:                                               ; preds = %16
  %35 = load i32, ptr getelementptr inbounds nuw (%struct.redisServer, ptr @server, i32 0, i32 394), align 8, !tbaa !166
  %36 = icmp eq i32 %35, 2
  br i1 %36, label %37, label %39

37:                                               ; preds = %34
  %38 = load ptr, ptr %3, align 8, !tbaa !53
  call void @addReplyNull(ptr noundef %38)
  br label %40

39:                                               ; preds = %34
  call void (ptr, i32, ptr, ...) @_serverPanic(ptr noundef @.str.1, i32 noundef 1436, ptr noundef @.str.117)
  call void @abort() #15
  unreachable

40:                                               ; preds = %37
  br label %41

41:                                               ; preds = %40, %33
  br label %42

42:                                               ; preds = %41, %12
  %43 = load ptr, ptr %3, align 8, !tbaa !53
  %44 = load ptr, ptr %4, align 8, !tbaa !116
  %45 = call i32 @shouldReturnTlsInfo()
  %46 = call i32 @clusterNodeClientPort(ptr noundef %44, i32 noundef %45)
  %47 = sext i32 %46 to i64
  call void @addReplyLongLong(ptr noundef %43, i64 noundef %47)
  %48 = load ptr, ptr %3, align 8, !tbaa !53
  %49 = load ptr, ptr %4, align 8, !tbaa !116
  %50 = call ptr @clusterNodeGetName(ptr noundef %49)
  call void @addReplyBulkCBuffer(ptr noundef %48, ptr noundef %50, i64 noundef 40)
  call void @llvm.lifetime.start.p0(i64 4, ptr %6) #14
  store i32 0, ptr %6, align 4, !tbaa !10
  %51 = load i32, ptr getelementptr inbounds nuw (%struct.redisServer, ptr @server, i32 0, i32 394), align 8, !tbaa !166
  %52 = icmp ne i32 %51, 0
  br i1 %52, label %53, label %56

53:                                               ; preds = %42
  %54 = load i32, ptr %6, align 4, !tbaa !10
  %55 = add nsw i32 %54, 1
  store i32 %55, ptr %6, align 4, !tbaa !10
  br label %56

56:                                               ; preds = %53, %42
  %57 = load i32, ptr getelementptr inbounds nuw (%struct.redisServer, ptr @server, i32 0, i32 394), align 8, !tbaa !166
  %58 = icmp ne i32 %57, 1
  br i1 %58, label %59, label %71

59:                                               ; preds = %56
  %60 = load ptr, ptr %5, align 8, !tbaa !5
  %61 = icmp ne ptr %60, null
  br i1 %61, label %62, label %71

62:                                               ; preds = %59
  %63 = load ptr, ptr %5, align 8, !tbaa !5
  %64 = getelementptr inbounds i8, ptr %63, i64 0
  %65 = load i8, ptr %64, align 1, !tbaa !12
  %66 = sext i8 %65 to i32
  %67 = icmp ne i32 %66, 0
  br i1 %67, label %68, label %71

68:                                               ; preds = %62
  %69 = load i32, ptr %6, align 4, !tbaa !10
  %70 = add nsw i32 %69, 1
  store i32 %70, ptr %6, align 4, !tbaa !10
  br label %71

71:                                               ; preds = %68, %62, %59, %56
  %72 = load ptr, ptr %3, align 8, !tbaa !53
  %73 = load i32, ptr %6, align 4, !tbaa !10
  %74 = sext i32 %73 to i64
  call void @addReplyMapLen(ptr noundef %72, i64 noundef %74)
  %75 = load i32, ptr getelementptr inbounds nuw (%struct.redisServer, ptr @server, i32 0, i32 394), align 8, !tbaa !166
  %76 = icmp ne i32 %75, 0
  br i1 %76, label %77, label %84

77:                                               ; preds = %71
  %78 = load ptr, ptr %3, align 8, !tbaa !53
  call void @addReplyBulkCString(ptr noundef %78, ptr noundef @.str.53)
  %79 = load ptr, ptr %3, align 8, !tbaa !53
  %80 = load ptr, ptr %4, align 8, !tbaa !116
  %81 = call ptr @clusterNodeIp(ptr noundef %80)
  call void @addReplyBulkCString(ptr noundef %79, ptr noundef %81)
  %82 = load i32, ptr %6, align 4, !tbaa !10
  %83 = add nsw i32 %82, -1
  store i32 %83, ptr %6, align 4, !tbaa !10
  br label %84

84:                                               ; preds = %77, %71
  %85 = load i32, ptr getelementptr inbounds nuw (%struct.redisServer, ptr @server, i32 0, i32 394), align 8, !tbaa !166
  %86 = icmp ne i32 %85, 1
  br i1 %86, label %87, label %102

87:                                               ; preds = %84
  %88 = load ptr, ptr %5, align 8, !tbaa !5
  %89 = icmp ne ptr %88, null
  br i1 %89, label %90, label %102

90:                                               ; preds = %87
  %91 = load ptr, ptr %5, align 8, !tbaa !5
  %92 = getelementptr inbounds i8, ptr %91, i64 0
  %93 = load i8, ptr %92, align 1, !tbaa !12
  %94 = sext i8 %93 to i32
  %95 = icmp ne i32 %94, 0
  br i1 %95, label %96, label %102

96:                                               ; preds = %90
  %97 = load ptr, ptr %3, align 8, !tbaa !53
  call void @addReplyBulkCString(ptr noundef %97, ptr noundef @.str.55)
  %98 = load ptr, ptr %3, align 8, !tbaa !53
  %99 = load ptr, ptr %5, align 8, !tbaa !5
  call void @addReplyBulkCString(ptr noundef %98, ptr noundef %99)
  %100 = load i32, ptr %6, align 4, !tbaa !10
  %101 = add nsw i32 %100, -1
  store i32 %101, ptr %6, align 4, !tbaa !10
  br label %102

102:                                              ; preds = %96, %90, %87, %84
  %103 = load i32, ptr %6, align 4, !tbaa !10
  %104 = icmp eq i32 %103, 0
  %105 = xor i1 %104, true
  %106 = xor i1 %105, true
  %107 = zext i1 %106 to i32
  %108 = sext i32 %107 to i64
  %109 = call i64 @llvm.expect.i64(i64 %108, i64 1)
  %110 = icmp ne i64 %109, 0
  br i1 %110, label %111, label %112

111:                                              ; preds = %102
  br label %114

112:                                              ; preds = %102
  call void @_serverAssert(ptr noundef @.str.118, ptr noundef @.str.1, i32 noundef 1470)
  call void @abort() #15
  unreachable

113:                                              ; No predecessors!
  br label %114

114:                                              ; preds = %113, %111
  call void @llvm.lifetime.end.p0(i64 4, ptr %6) #14
  call void @llvm.lifetime.end.p0(i64 8, ptr %5) #14
  ret void
}