; Function Attrs: nounwind uwtable
define dso_local void @addNodeToNodeReply(ptr noundef %0, ptr noundef %1) local_unnamed_addr #0 {
  %3 = tail call ptr @clusterNodeHostname(ptr noundef %1) #16
  tail call void @addReplyArrayLen(ptr noundef %0, i64 noundef 4) #16
  %4 = load i32, ptr getelementptr inbounds nuw (i8, ptr @server, i64 7976), align 8, !tbaa !144
  switch i32 %4, label %13 [
    i32 0, label %5
    i32 1, label %7
    i32 2, label %12
  ]

5:                                                ; preds = %2
  %6 = tail call ptr @clusterNodeIp(ptr noundef %1) #16
  tail call void @addReplyBulkCString(ptr noundef %0, ptr noundef %6) #16
  br label %14

7:                                                ; preds = %2
  %.not = icmp eq ptr %3, null
  br i1 %.not, label %11, label %8

8:                                                ; preds = %7
  %9 = load i8, ptr %3, align 1, !tbaa !5
  %.not37 = icmp eq i8 %9, 0
  br i1 %.not37, label %11, label %10

10:                                               ; preds = %8
  tail call void @addReplyBulkCString(ptr noundef %0, ptr noundef nonnull %3) #16
  br label %14

11:                                               ; preds = %8, %7
  tail call void @addReplyBulkCString(ptr noundef %0, ptr noundef nonnull @.str.116) #16
  br label %14

12:                                               ; preds = %2
  tail call void @addReplyNull(ptr noundef %0) #16
  br label %14

13:                                               ; preds = %2
  tail call void (ptr, i32, ptr, ...) @_serverPanic(ptr noundef nonnull @.str.1, i32 noundef 1436, ptr noundef nonnull @.str.117) #16
  tail call void @abort() #17
  unreachable

14:                                               ; preds = %12, %11, %10, %5
  %15 = load ptr, ptr getelementptr inbounds nuw (i8, ptr @server, i64 1480), align 8, !tbaa !108
  %.not.i = icmp eq ptr %15, null
  br i1 %.not.i, label %23, label %16

16:                                               ; preds = %14
  %17 = getelementptr inbounds nuw i8, ptr %15, i64 16
  %18 = load ptr, ptr %17, align 8, !tbaa !109
  %.not3.i = icmp eq ptr %18, null
  br i1 %.not3.i, label %23, label %19

19:                                               ; preds = %16
  %.val.i = load ptr, ptr %18, align 8, !tbaa !79
  %20 = tail call ptr @connectionTypeTls() #16
  %21 = icmp eq ptr %.val.i, %20
  %22 = zext i1 %21 to i32
  br label %shouldReturnTlsInfo.exit

23:                                               ; preds = %16, %14
  %24 = load i32, ptr getelementptr inbounds nuw (i8, ptr @server, i64 8160), align 8, !tbaa !10
  br label %shouldReturnTlsInfo.exit

shouldReturnTlsInfo.exit:                         ; preds = %19, %23
  %.0.i = phi i32 [ %22, %19 ], [ %24, %23 ]
  %25 = tail call i32 @clusterNodeClientPort(ptr noundef %1, i32 noundef %.0.i) #16
  %26 = sext i32 %25 to i64
  tail call void @addReplyLongLong(ptr noundef %0, i64 noundef %26) #16
  %27 = tail call ptr @clusterNodeGetName(ptr noundef %1) #16
  tail call void @addReplyBulkCBuffer(ptr noundef %0, ptr noundef %27, i64 noundef 40) #16
  %28 = load i32, ptr getelementptr inbounds nuw (i8, ptr @server, i64 7976), align 8, !tbaa !144
  %.not38 = icmp ne i32 %28, 0
  %spec.select = zext i1 %.not38 to i32
  %29 = icmp ne i32 %28, 1
  %30 = icmp ne ptr %3, null
  %or.cond = select i1 %29, i1 %30, i1 false
  br i1 %or.cond, label %31, label %34

31:                                               ; preds = %shouldReturnTlsInfo.exit
  %32 = load i8, ptr %3, align 1, !tbaa !5
  %.not39 = icmp eq i8 %32, 0
  %33 = select i1 %.not38, i32 2, i32 1
  %spec.select42 = select i1 %.not39, i32 %spec.select, i32 %33
  br label %34

34:                                               ; preds = %31, %shouldReturnTlsInfo.exit
  %.1 = phi i32 [ %spec.select, %shouldReturnTlsInfo.exit ], [ %spec.select42, %31 ]
  %35 = zext nneg i32 %.1 to i64
  tail call void @addReplyMapLen(ptr noundef %0, i64 noundef %35) #16
  %36 = load i32, ptr getelementptr inbounds nuw (i8, ptr @server, i64 7976), align 8, !tbaa !144
  %.not40 = icmp eq i32 %36, 0
  br i1 %.not40, label %42, label %37

37:                                               ; preds = %34
  tail call void @addReplyBulkCString(ptr noundef %0, ptr noundef nonnull @.str.53) #16
  %38 = tail call ptr @clusterNodeIp(ptr noundef %1) #16
  tail call void @addReplyBulkCString(ptr noundef %0, ptr noundef %38) #16
  %39 = add nsw i32 %.1, -1
  %.pre = load i32, ptr getelementptr inbounds nuw (i8, ptr @server, i64 7976), align 8, !tbaa !144
  %40 = icmp ne i32 %.pre, 1
  %41 = select i1 %40, i1 %30, i1 false
  br i1 %41, label %43, label %47

42:                                               ; preds = %34
  br i1 %30, label %43, label %47

43:                                               ; preds = %37, %42
  %.243 = phi i32 [ %39, %37 ], [ %.1, %42 ]
  %44 = load i8, ptr %3, align 1, !tbaa !5
  %.not41 = icmp eq i8 %44, 0
  br i1 %.not41, label %47, label %45

45:                                               ; preds = %43
  tail call void @addReplyBulkCString(ptr noundef %0, ptr noundef nonnull @.str.55) #16
  tail call void @addReplyBulkCString(ptr noundef %0, ptr noundef nonnull %3) #16
  %46 = add nsw i32 %.243, -1
  br label %47

47:                                               ; preds = %37, %45, %43, %42
  %.3 = phi i32 [ %46, %45 ], [ %.243, %43 ], [ %.1, %42 ], [ %39, %37 ]
  %48 = icmp eq i32 %.3, 0
  br i1 %48, label %50, label %49, !prof !103

49:                                               ; preds = %47
  tail call void @_serverAssert(ptr noundef nonnull @.str.118, ptr noundef nonnull @.str.1, i32 noundef 1470) #16
  tail call void @abort() #17
  unreachable

50:                                               ; preds = %47
  ret void
}